; Function Attrs: nounwind uwtable
define internal i32 @cid_size_init(ptr noundef readonly captures(none) %0) #2 {
  %2 = alloca ptr, align 8
  %.val = load ptr, ptr %0, align 8
  %3 = getelementptr i8, ptr %.val, i64 176
  %.val.val = load ptr, ptr %3, align 8
  %4 = getelementptr i8, ptr %.val, i64 608
  %.val.val15 = load ptr, ptr %4, align 8
  %5 = getelementptr i8, ptr %.val.val, i64 8
  %.val.val.val = load ptr, ptr %5, align 8
  %6 = tail call ptr @FT_Get_Module(ptr noundef %.val.val.val, ptr noundef nonnull @.str.8) #13
  %7 = icmp ne ptr %6, null
  %8 = icmp ne ptr %.val.val15, null
  %or.cond.i = select i1 %7, i1 %8, i1 false
  br i1 %or.cond.i, label %9, label %cid_size_get_globals_funcs.exit.thread

9:                                                ; preds = %1
  %10 = load ptr, ptr %.val.val15, align 8
  %.not.i = icmp eq ptr %10, null
  br i1 %.not.i, label %cid_size_get_globals_funcs.exit.thread, label %cid_size_get_globals_funcs.exit

cid_size_get_globals_funcs.exit:                  ; preds = %9
  %11 = tail call ptr %10(ptr noundef nonnull %6) #13
  %.not = icmp eq ptr %11, null
  br i1 %.not, label %cid_size_get_globals_funcs.exit.thread, label %12

12:                                               ; preds = %cid_size_get_globals_funcs.exit
  %13 = load ptr, ptr %0, align 8
  %14 = getelementptr inbounds nuw i8, ptr %13, i64 576
  %15 = load ptr, ptr %14, align 8
  %16 = getelementptr inbounds nuw i8, ptr %13, i64 8
  %17 = load i64, ptr %16, align 8
  %18 = getelementptr inbounds %struct.CID_FaceDictRec_, ptr %15, i64 %17
  %19 = load ptr, ptr %11, align 8
  %20 = getelementptr inbounds nuw i8, ptr %13, i64 184
  %21 = load ptr, ptr %20, align 8
  %22 = call i32 %19(ptr noundef %21, ptr noundef %18, ptr noundef nonnull %2) #13
  %.not14 = icmp eq i32 %22, 0
  br i1 %.not14, label %23, label %cid_size_get_globals_funcs.exit.thread

23:                                               ; preds = %12
  %24 = load ptr, ptr %2, align 8
  %25 = getelementptr inbounds nuw i8, ptr %0, i64 80
  %26 = load ptr, ptr %25, align 8
  store ptr %24, ptr %26, align 8
  br label %cid_size_get_globals_funcs.exit.thread

cid_size_get_globals_funcs.exit.thread:           ; preds = %1, %9, %12, %23, %cid_size_get_globals_funcs.exit
  %.0 = phi i32 [ %22, %12 ], [ 0, %23 ], [ 0, %cid_size_get_globals_funcs.exit ], [ 0, %9 ], [ 0, %1 ]
  ret i32 %.0
}